(dp0
I39110216
(imodel.student
Student
p1
(dp2
S'_Student__name'
p3
S'1'
p4
sS'_Student__id'
p5
I39110216
sS'_Student__age'
p6
g4
sS'_Student__group_id'
p7
S'36357704'
p8
sbsI37549840
(imodel.student
Student
p9
(dp10
g3
S'vas'
p11
sg5
I37549840
sg6
S'3'
p12
sg7
S'36357704'
p13
sbs.